; ModuleID = '55/1099.c'
source_filename = "55/1099.c"
target datalayout = "e-m:e-p270:32:32-p271:32:32-p272:64:64-i64:64-f80:128-n8:16:32:64-S128"
target triple = "x86_64-pc-linux-gnu"

@.str = private unnamed_addr constant [3 x i8] c"%d\00", align 1
@.str.1 = private unnamed_addr constant [3 x i8] c"%s\00", align 1
@.str.2 = private unnamed_addr constant [3 x i8] c"%c\00", align 1
@.str.3 = private unnamed_addr constant [2 x i8] c"\0A\00", align 1

; Function Attrs: noinline nounwind uwtable
define dso_local void @main() #0 {
  %1 = alloca [100 x i32], align 16
  %2 = alloca i32, align 4
  %3 = alloca i32, align 4
  %4 = alloca i32, align 4
  %5 = alloca i32, align 4
  %6 = alloca [100 x i8], align 16
  %7 = alloca i32, align 4
  %8 = alloca i32, align 4
  %9 = alloca i32, align 4
  %10 = alloca i32, align 4
  %11 = bitcast [100 x i32]* %1 to i8*
  call void @llvm.memset.p0i8.i64(i8* align 16 %11, i8 0, i64 400, i1 false)
  %12 = bitcast [100 x i8]* %6 to i8*
  call void @llvm.memset.p0i8.i64(i8* align 16 %12, i8 0, i64 100, i1 false)
  store i32 0, i32* %10, align 4
  %13 = call i32 (i8*, ...) @__isoc99_scanf(i8* getelementptr inbounds ([3 x i8], [3 x i8]* @.str, i64 0, i64 0), i32* %7)
  %14 = getelementptr inbounds [100 x i8], [100 x i8]* %6, i64 0, i64 0
  %15 = call i32 (i8*, ...) @__isoc99_scanf(i8* getelementptr inbounds ([3 x i8], [3 x i8]* @.str.1, i64 0, i64 0), i8* %14)
  %16 = call i32 (i8*, ...) @__isoc99_scanf(i8* getelementptr inbounds ([3 x i8], [3 x i8]* @.str, i64 0, i64 0), i32* %8)
  %17 = getelementptr inbounds [100 x i8], [100 x i8]* %6, i64 0, i64 0
  %18 = call i64 @strlen(i8* %17) #5
  %19 = trunc i64 %18 to i32
  store i32 %19, i32* %2, align 4
  %20 = load i32, i32* %2, align 4
  %21 = sub nsw i32 %20, 1
  store i32 %21, i32* %3, align 4
  br label %22

22:                                               ; preds = %83, %0
  %23 = load i32, i32* %3, align 4
  %24 = icmp sge i32 %23, 0
  br i1 %24, label %25, label %86

25:                                               ; preds = %22
  %26 = load i32, i32* %7, align 4
  %27 = sitofp i32 %26 to double
  %28 = load i32, i32* %2, align 4
  %29 = sub nsw i32 %28, 1
  %30 = load i32, i32* %3, align 4
  %31 = sub nsw i32 %29, %30
  %32 = sitofp i32 %31 to double
  %33 = call double @pow(double %27, double %32) #6
  %34 = fptosi double %33 to i32
  store i32 %34, i32* %9, align 4
  %35 = load i32, i32* %3, align 4
  %36 = sext i32 %35 to i64
  %37 = getelementptr inbounds [100 x i8], [100 x i8]* %6, i64 0, i64 %36
  %38 = load i8, i8* %37, align 1
  %39 = sext i8 %38 to i32
  %40 = icmp slt i32 %39, 65
  br i1 %40, label %41, label %52

41:                                               ; preds = %25
  %42 = load i32, i32* %10, align 4
  %43 = load i32, i32* %9, align 4
  %44 = load i32, i32* %3, align 4
  %45 = sext i32 %44 to i64
  %46 = getelementptr inbounds [100 x i8], [100 x i8]* %6, i64 0, i64 %45
  %47 = load i8, i8* %46, align 1
  %48 = sext i8 %47 to i32
  %49 = sub nsw i32 %48, 48
  %50 = mul nsw i32 %43, %49
  %51 = add nsw i32 %42, %50
  store i32 %51, i32* %10, align 4
  br label %82

52:                                               ; preds = %25
  %53 = load i32, i32* %3, align 4
  %54 = sext i32 %53 to i64
  %55 = getelementptr inbounds [100 x i8], [100 x i8]* %6, i64 0, i64 %54
  %56 = load i8, i8* %55, align 1
  %57 = sext i8 %56 to i32
  %58 = icmp slt i32 %57, 96
  br i1 %58, label %59, label %70

59:                                               ; preds = %52
  %60 = load i32, i32* %10, align 4
  %61 = load i32, i32* %3, align 4
  %62 = sext i32 %61 to i64
  %63 = getelementptr inbounds [100 x i8], [100 x i8]* %6, i64 0, i64 %62
  %64 = load i8, i8* %63, align 1
  %65 = sext i8 %64 to i32
  %66 = sub nsw i32 %65, 55
  %67 = load i32, i32* %9, align 4
  %68 = mul nsw i32 %66, %67
  %69 = add nsw i32 %60, %68
  store i32 %69, i32* %10, align 4
  br label %81

70:                                               ; preds = %52
  %71 = load i32, i32* %10, align 4
  %72 = load i32, i32* %3, align 4
  %73 = sext i32 %72 to i64
  %74 = getelementptr inbounds [100 x i8], [100 x i8]* %6, i64 0, i64 %73
  %75 = load i8, i8* %74, align 1
  %76 = sext i8 %75 to i32
  %77 = sub nsw i32 %76, 87
  %78 = load i32, i32* %9, align 4
  %79 = mul nsw i32 %77, %78
  %80 = add nsw i32 %71, %79
  store i32 %80, i32* %10, align 4
  br label %81

81:                                               ; preds = %70, %59
  br label %82

82:                                               ; preds = %81, %41
  br label %83

83:                                               ; preds = %82
  %84 = load i32, i32* %3, align 4
  %85 = add nsw i32 %84, -1
  store i32 %85, i32* %3, align 4
  br label %22

86:                                               ; preds = %22
  store i32 0, i32* %5, align 4
  store i32 0, i32* %3, align 4
  br label %87

87:                                               ; preds = %113, %86
  %88 = load i32, i32* %5, align 4
  %89 = add nsw i32 %88, 1
  store i32 %89, i32* %5, align 4
  %90 = load i32, i32* %10, align 4
  %91 = load i32, i32* %8, align 4
  %92 = srem i32 %90, %91
  %93 = load i32, i32* %3, align 4
  %94 = sext i32 %93 to i64
  %95 = getelementptr inbounds [100 x i32], [100 x i32]* %1, i64 0, i64 %94
  store i32 %92, i32* %95, align 4
  %96 = load i32, i32* %8, align 4
  %97 = sitofp i32 %96 to double
  %98 = load i32, i32* %3, align 4
  %99 = sitofp i32 %98 to double
  %100 = call double @pow(double %97, double %99) #6
  %101 = fptosi double %100 to i32
  store i32 %101, i32* %9, align 4
  %102 = load i32, i32* %10, align 4
  %103 = load i32, i32* %8, align 4
  %104 = sdiv i32 %102, %103
  store i32 %104, i32* %4, align 4
  %105 = load i32, i32* %4, align 4
  %106 = load i32, i32* %8, align 4
  %107 = icmp slt i32 %105, %106
  br i1 %107, label %108, label %109

108:                                              ; preds = %87
  br label %116

109:                                              ; preds = %87
  %110 = load i32, i32* %10, align 4
  %111 = load i32, i32* %8, align 4
  %112 = sdiv i32 %110, %111
  store i32 %112, i32* %10, align 4
  br label %113

113:                                              ; preds = %109
  %114 = load i32, i32* %3, align 4
  %115 = add nsw i32 %114, 1
  store i32 %115, i32* %3, align 4
  br label %87

116:                                              ; preds = %108
  %117 = load i32, i32* %4, align 4
  %118 = icmp sle i32 %117, 9
  br i1 %118, label %119, label %125

119:                                              ; preds = %116
  %120 = load i32, i32* %4, align 4
  %121 = icmp sgt i32 %120, 0
  br i1 %121, label %122, label %125

122:                                              ; preds = %119
  %123 = load i32, i32* %4, align 4
  %124 = call i32 (i8*, ...) @printf(i8* getelementptr inbounds ([3 x i8], [3 x i8]* @.str, i64 0, i64 0), i32 %123)
  br label %133

125:                                              ; preds = %119, %116
  %126 = load i32, i32* %4, align 4
  %127 = icmp sgt i32 %126, 9
  br i1 %127, label %128, label %132

128:                                              ; preds = %125
  %129 = load i32, i32* %4, align 4
  %130 = add nsw i32 %129, 55
  %131 = call i32 (i8*, ...) @printf(i8* getelementptr inbounds ([3 x i8], [3 x i8]* @.str.2, i64 0, i64 0), i32 %130)
  br label %132

132:                                              ; preds = %128, %125
  br label %133

133:                                              ; preds = %132, %122
  %134 = load i32, i32* %5, align 4
  %135 = sub nsw i32 %134, 1
  store i32 %135, i32* %3, align 4
  br label %136

136:                                              ; preds = %159, %133
  %137 = load i32, i32* %3, align 4
  %138 = icmp sge i32 %137, 0
  br i1 %138, label %139, label %162

139:                                              ; preds = %136
  %140 = load i32, i32* %3, align 4
  %141 = sext i32 %140 to i64
  %142 = getelementptr inbounds [100 x i32], [100 x i32]* %1, i64 0, i64 %141
  %143 = load i32, i32* %142, align 4
  %144 = icmp sle i32 %143, 9
  br i1 %144, label %145, label %151

145:                                              ; preds = %139
  %146 = load i32, i32* %3, align 4
  %147 = sext i32 %146 to i64
  %148 = getelementptr inbounds [100 x i32], [100 x i32]* %1, i64 0, i64 %147
  %149 = load i32, i32* %148, align 4
  %150 = call i32 (i8*, ...) @printf(i8* getelementptr inbounds ([3 x i8], [3 x i8]* @.str, i64 0, i64 0), i32 %149)
  br label %158

151:                                              ; preds = %139
  %152 = load i32, i32* %3, align 4
  %153 = sext i32 %152 to i64
  %154 = getelementptr inbounds [100 x i32], [100 x i32]* %1, i64 0, i64 %153
  %155 = load i32, i32* %154, align 4
  %156 = add nsw i32 %155, 55
  %157 = call i32 (i8*, ...) @printf(i8* getelementptr inbounds ([3 x i8], [3 x i8]* @.str.2, i64 0, i64 0), i32 %156)
  br label %158

158:                                              ; preds = %151, %145
  br label %159

159:                                              ; preds = %158
  %160 = load i32, i32* %3, align 4
  %161 = add nsw i32 %160, -1
  store i32 %161, i32* %3, align 4
  br label %136

162:                                              ; preds = %136
  %163 = call i32 (i8*, ...) @printf(i8* getelementptr inbounds ([2 x i8], [2 x i8]* @.str.3, i64 0, i64 0))
  ret void
}

; Function Attrs: argmemonly nounwind willreturn
declare void @llvm.memset.p0i8.i64(i8* nocapture writeonly, i8, i64, i1 immarg) #1

declare dso_local i32 @__isoc99_scanf(i8*, ...) #2

; Function Attrs: nounwind readonly
declare dso_local i64 @strlen(i8*) #3

; Function Attrs: nounwind
declare dso_local double @pow(double, double) #4

declare dso_local i32 @printf(i8*, ...) #2


!llvm.module.flags = !{!0}
!llvm.ident = !{!1}

!0 = !{i32 1, !"wchar_size", i32 4}
!1 = !{!"clang version 10.0.0-4ubuntu1 "}
